; Function Attrs: mustprogress uwtable
define void @_ZN17AdditionalToolBar8menuNameEv(ptr dead_on_unwind noalias nocapture writable writeonly sret(%class.QString) align 8 %0, ptr nocapture noundef nonnull readonly align 8 dereferenceable(48) %1) local_unnamed_addr #0 align 2 personality ptr @__gxx_personality_v0 {
  %3 = alloca %class.QString, align 16
  %4 = getelementptr inbounds i8, ptr %1, i64 40
  %5 = load ptr, ptr %4, align 8
  %.not = icmp eq ptr %5, null
  br i1 %.not, label %14, label %6

6:                                                ; preds = %2
  %7 = getelementptr inbounds i8, ptr %5, i64 24
  %8 = load ptr, ptr %7, align 8
  %.not2 = icmp eq ptr %8, null
  br i1 %.not2, label %14, label %_ZN7QStringC2EPKc.exit

_ZN7QStringC2EPKc.exit:                           ; preds = %6
  call void @llvm.lifetime.start.p0(i64 24, ptr nonnull %3)
  %9 = tail call noundef i64 @strlen(ptr noundef nonnull dereferenceable(1) %8) #16
  call void @_ZN7QString8fromUtf8E14QByteArrayView(ptr dead_on_unwind nonnull writable sret(%class.QString) align 8 %3, i64 %9, ptr nonnull %8)
  %10 = load <2 x ptr>, ptr %3, align 16
  store <2 x ptr> %10, ptr %0, align 8
  %11 = getelementptr inbounds i8, ptr %0, i64 16
  %12 = getelementptr inbounds i8, ptr %3, i64 16
  %13 = load i64, ptr %12, align 16
  store i64 %13, ptr %11, align 8
  call void @llvm.lifetime.end.p0(i64 24, ptr nonnull %3)
  br label %15

14:                                               ; preds = %6, %2
  tail call void @llvm.memset.p0.i64(ptr noundef nonnull align 8 dereferenceable(24) %0, i8 0, i64 24, i1 false)
  br label %15

15:                                               ; preds = %14, %_ZN7QStringC2EPKc.exit
  ret void
}